Certificate:
    Data:
        Version: 3 (0x2)
        Serial Number: 1 (0x1)
    Signature Algorithm: sha256WithRSAEncryption
        Issuer: C=CH, ST=VD, L=Lausanne, O=Synthese, OU=Synthese, CN=synthese-icecc/name=SyntheseIceccServer/emailAddress=none@example.com
        Validity
            Not Before: Oct  3 07:29:16 2014 GMT
            Not After : Sep 30 07:29:16 2024 GMT
        Subject: C=CH, ST=VD, L=Lausanne, O=Synthese, OU=Synthese, CN=synthese-icecc/name=EasyRSA/emailAddress=none@example.com
        Subject Public Key Info:
            Public Key Algorithm: rsaEncryption
                Public-Key: (2048 bit)
                Modulus:
                    00:f2:b2:a7:50:b0:74:04:16:cc:c8:4d:79:6f:3a:
                    e8:4d:a8:60:ff:8e:83:17:58:c7:59:42:04:ce:eb:
                    ab:9d:b9:4c:c4:45:9a:d9:42:9c:ca:43:c7:b6:7e:
                    af:fe:07:43:fe:fd:f0:b6:b2:d6:d9:76:7d:a4:c4:
                    b5:55:a1:1d:b1:5d:b1:78:33:cd:16:e6:6c:a8:59:
                    76:9f:01:73:4f:4f:b2:21:b3:a1:31:32:55:12:28:
                    00:f4:63:17:02:b6:1a:ab:45:d0:66:44:dd:d1:d7:
                    01:91:66:ef:61:40:58:c0:f4:cd:fd:93:79:06:a6:
                    e4:52:77:0d:8a:5c:42:14:56:62:37:d4:fa:81:5d:
                    02:42:ea:60:f1:a3:1a:ce:a3:fb:4e:a2:25:59:26:
                    a3:7c:d1:c8:fe:d3:da:59:29:cc:06:8b:76:3e:9c:
                    88:23:be:ad:1f:3e:11:3f:f8:fa:0f:56:04:a2:a9:
                    f9:e8:2c:33:ce:11:9b:0c:d2:8f:a0:9d:ef:ad:09:
                    5e:66:b1:3d:f1:a4:8e:15:fc:2e:03:13:d6:e3:2f:
                    b7:89:8f:e2:8e:7f:ca:27:ab:2f:88:c6:6d:cf:32:
                    65:43:52:52:91:95:4e:51:a2:c9:29:35:52:2e:73:
                    21:24:3c:f0:57:18:51:d0:6c:52:47:ef:9b:5e:e9:
                    1e:3f
                Exponent: 65537 (0x10001)
        X509v3 extensions:
            X509v3 Basic Constraints: 
                CA:FALSE
            Netscape Cert Type: 
                SSL Server
            Netscape Comment: 
                Easy-RSA Generated Server Certificate
            X509v3 Subject Key Identifier: 
                93:C7:1C:54:A2:B2:6E:18:E2:A4:4E:F5:84:16:C2:51:83:1F:33:08
            X509v3 Authority Key Identifier: 
                keyid:FE:BD:2A:D9:95:7E:90:83:42:CD:29:B3:39:20:EA:60:5D:7A:DD:45
                DirName:/C=CH/ST=VD/L=Lausanne/O=Synthese/OU=Synthese/CN=synthese-icecc/name=SyntheseIceccServer/emailAddress=none@example.com
                serial:8B:C4:B4:30:6F:D2:E3:17

            X509v3 Extended Key Usage: 
                TLS Web Server Authentication
            X509v3 Key Usage: 
                Digital Signature, Key Encipherment
    Signature Algorithm: sha256WithRSAEncryption
         21:fc:76:16:f0:2c:52:86:48:f7:05:d3:df:d6:dc:0f:25:19:
         df:39:59:fd:a3:e3:98:14:e0:23:18:42:fa:a2:f7:46:b7:d9:
         31:da:aa:78:94:08:ba:26:35:70:d8:56:20:e1:73:a5:3c:ec:
         8d:69:25:e7:98:14:76:11:90:68:25:ec:5f:84:ee:1a:ee:84:
         d6:2e:c0:61:ad:11:8c:d9:29:86:f2:95:2e:89:1c:f8:3d:81:
         93:4a:48:1b:8f:43:1e:72:db:07:d7:9d:4a:5d:e6:d9:5b:be:
         f3:0c:f4:96:6a:d9:8e:04:d7:bc:5e:c6:fe:a1:3d:b1:20:58:
         f4:a3:57:66:7e:7b:96:4e:ea:d6:f6:a9:1f:19:e4:20:5d:76:
         e2:40:e8:ff:b6:57:97:e4:43:0f:1e:f6:0d:b9:63:cd:c9:ef:
         4b:bb:ae:b9:14:13:cd:a5:70:64:fc:f8:3c:b1:19:4b:cb:9c:
         fa:65:8e:06:3a:6a:b6:94:c0:af:5b:a3:dd:a6:a7:05:c1:f6:
         97:b8:d9:23:de:5d:3a:a0:95:10:e9:50:fc:11:3e:9d:b1:46:
         2c:09:6d:d6:bd:4f:34:7f:e1:69:db:c6:12:44:71:f2:2e:ba:
         5e:5e:81:29:09:53:3a:17:46:e0:84:8e:e1:e7:70:e6:91:ce:
         ea:e8:ce:10
-----BEGIN CERTIFICATE-----
MIIFRTCCBC2gAwIBAgIBATANBgkqhkiG9w0BAQsFADCBqzELMAkGA1UEBhMCQ0gx
CzAJBgNVBAgTAlZEMREwDwYDVQQHEwhMYXVzYW5uZTERMA8GA1UEChMIU3ludGhl
c2UxETAPBgNVBAsTCFN5bnRoZXNlMRcwFQYDVQQDEw5zeW50aGVzZS1pY2VjYzEc
MBoGA1UEKRMTU3ludGhlc2VJY2VjY1NlcnZlcjEfMB0GCSqGSIb3DQEJARYQbm9u
ZUBleGFtcGxlLmNvbTAeFw0xNDEwMDMwNzI5MTZaFw0yNDA5MzAwNzI5MTZaMIGf
MQswCQYDVQQGEwJDSDELMAkGA1UECBMCVkQxETAPBgNVBAcTCExhdXNhbm5lMREw
DwYDVQQKEwhTeW50aGVzZTERMA8GA1UECxMIU3ludGhlc2UxFzAVBgNVBAMTDnN5
bnRoZXNlLWljZWNjMRAwDgYDVQQpEwdFYXN5UlNBMR8wHQYJKoZIhvcNAQkBFhBu
b25lQGV4YW1wbGUuY29tMIIBIjANBgkqhkiG9w0BAQEFAAOCAQ8AMIIBCgKCAQEA
8rKnULB0BBbMyE15bzroTahg/46DF1jHWUIEzuurnblMxEWa2UKcykPHtn6v/gdD
/v3wtrLW2XZ9pMS1VaEdsV2xeDPNFuZsqFl2nwFzT0+yIbOhMTJVEigA9GMXArYa
q0XQZkTd0dcBkWbvYUBYwPTN/ZN5BqbkUncNilxCFFZiN9T6gV0CQupg8aMazqP7
TqIlWSajfNHI/tPaWSnMBot2PpyII76tHz4RP/j6D1YEoqn56CwzzhGbDNKPoJ3v
rQleZrE98aSOFfwuAxPW4y+3iY/ijn/KJ6sviMZtzzJlQ1JSkZVOUaLJKTVSLnMh
JDzwVxhR0GxSR++bXukePwIDAQABo4IBfDCCAXgwCQYDVR0TBAIwADARBglghkgB
hvhCAQEEBAMCBkAwNAYJYIZIAYb4QgENBCcWJUVhc3ktUlNBIEdlbmVyYXRlZCBT
ZXJ2ZXIgQ2VydGlmaWNhdGUwHQYDVR0OBBYEFJPHHFSism4Y4qRO9YQWwlGDHzMI
MIHgBgNVHSMEgdgwgdWAFP69KtmVfpCDQs0pszkg6mBdet1FoYGxpIGuMIGrMQsw
CQYDVQQGEwJDSDELMAkGA1UECBMCVkQxETAPBgNVBAcTCExhdXNhbm5lMREwDwYD
VQQKEwhTeW50aGVzZTERMA8GA1UECxMIU3ludGhlc2UxFzAVBgNVBAMTDnN5bnRo
ZXNlLWljZWNjMRwwGgYDVQQpExNTeW50aGVzZUljZWNjU2VydmVyMR8wHQYJKoZI
hvcNAQkBFhBub25lQGV4YW1wbGUuY29tggkAi8S0MG/S4xcwEwYDVR0lBAwwCgYI
KwYBBQUHAwEwCwYDVR0PBAQDAgWgMA0GCSqGSIb3DQEBCwUAA4IBAQAh/HYW8CxS
hkj3BdPf1twPJRnfOVn9o+OYFOAjGEL6ovdGt9kx2qp4lAi6JjVw2FYg4XOlPOyN
aSXnmBR2EZBoJexfhO4a7oTWLsBhrRGM2SmG8pUuiRz4PYGTSkgbj0MectsH151K
XebZW77zDPSWatmOBNe8Xsb+oT2xIFj0o1dmfnuWTurW9qkfGeQgXXbiQOj/tleX
5EMPHvYNuWPNye9Lu665FBPNpXBk/Pg8sRlLy5z6ZY4GOmq2lMCvW6PdpqcFwfaX
uNkj3l06oJUQ6VD8ET6dsUYsCW3WvU80f+Fp28YSRHHyLrpeXoEpCVM6F0bghI7h
53Dmkc7q6M4Q
-----END CERTIFICATE-----
